; ModuleID = '35/139.c'
source_filename = "35/139.c"
target datalayout = "e-m:e-p270:32:32-p271:32:32-p272:64:64-i64:64-f80:128-n8:16:32:64-S128"
target triple = "x86_64-pc-linux-gnu"

@.str = private unnamed_addr constant [6 x i8] c"%d,%d\00", align 1
@.str.1 = private unnamed_addr constant [3 x i8] c"%d\00", align 1
@.str.2 = private unnamed_addr constant [7 x i8] c"%d+%d\0A\00", align 1
@.str.3 = private unnamed_addr constant [4 x i8] c"No\0A\00", align 1

; Function Attrs: noinline nounwind uwtable
define dso_local void @main() #0 {
  %1 = alloca i32, align 4
  %2 = alloca i32, align 4
  %3 = alloca [50 x [50 x i32]], align 16
  %4 = alloca [50 x i32]*, align 8
  %5 = alloca i32, align 4
  %6 = alloca i32, align 4
  %7 = alloca i32, align 4
  store i32 0, i32* %7, align 4
  %8 = getelementptr inbounds [50 x [50 x i32]], [50 x [50 x i32]]* %3, i64 0, i64 0
  store [50 x i32]* %8, [50 x i32]** %4, align 8
  %9 = call i32 (i8*, ...) @__isoc99_scanf(i8* getelementptr inbounds ([6 x i8], [6 x i8]* @.str, i64 0, i64 0), i32* %1, i32* %2)
  store i32 0, i32* %5, align 4
  br label %10

10:                                               ; preds = %33, %0
  %11 = load i32, i32* %5, align 4
  %12 = load i32, i32* %1, align 4
  %13 = sub nsw i32 %12, 1
  %14 = icmp sle i32 %11, %13
  br i1 %14, label %15, label %36

15:                                               ; preds = %10
  store i32 0, i32* %6, align 4
  br label %16

16:                                               ; preds = %29, %15
  %17 = load i32, i32* %6, align 4
  %18 = load i32, i32* %2, align 4
  %19 = sub nsw i32 %18, 1
  %20 = icmp sle i32 %17, %19
  br i1 %20, label %21, label %32

21:                                               ; preds = %16
  %22 = load i32, i32* %5, align 4
  %23 = sext i32 %22 to i64
  %24 = getelementptr inbounds [50 x [50 x i32]], [50 x [50 x i32]]* %3, i64 0, i64 %23
  %25 = load i32, i32* %6, align 4
  %26 = sext i32 %25 to i64
  %27 = getelementptr inbounds [50 x i32], [50 x i32]* %24, i64 0, i64 %26
  %28 = call i32 (i8*, ...) @__isoc99_scanf(i8* getelementptr inbounds ([3 x i8], [3 x i8]* @.str.1, i64 0, i64 0), i32* %27)
  br label %29

29:                                               ; preds = %21
  %30 = load i32, i32* %6, align 4
  %31 = add nsw i32 %30, 1
  store i32 %31, i32* %6, align 4
  br label %16

32:                                               ; preds = %16
  br label %33

33:                                               ; preds = %32
  %34 = load i32, i32* %5, align 4
  %35 = add nsw i32 %34, 1
  store i32 %35, i32* %5, align 4
  br label %10

36:                                               ; preds = %10
  store i32 0, i32* %5, align 4
  br label %37

37:                                               ; preds = %66, %36
  %38 = load i32, i32* %5, align 4
  %39 = load i32, i32* %1, align 4
  %40 = sub nsw i32 %39, 1
  %41 = icmp sle i32 %38, %40
  br i1 %41, label %42, label %69

42:                                               ; preds = %37
  %43 = load i32, i32* %1, align 4
  %44 = load i32, i32* %5, align 4
  %45 = load i32, i32* %2, align 4
  %46 = load i32, i32* %5, align 4
  %47 = sext i32 %46 to i64
  %48 = getelementptr inbounds [50 x [50 x i32]], [50 x [50 x i32]]* %3, i64 0, i64 %47
  %49 = getelementptr inbounds [50 x i32], [50 x i32]* %48, i64 0, i64 0
  %50 = call i32 @max(i32 %45, i32* %49)
  %51 = load [50 x i32]*, [50 x i32]** %4, align 8
  %52 = call i32 @min(i32 %43, i32 %44, i32 %50, [50 x i32]* %51)
  %53 = icmp ne i32 %52, 0
  br i1 %53, label %54, label %65

54:                                               ; preds = %42
  %55 = load i32, i32* %7, align 4
  %56 = add nsw i32 %55, 1
  store i32 %56, i32* %7, align 4
  %57 = load i32, i32* %5, align 4
  %58 = load i32, i32* %2, align 4
  %59 = load i32, i32* %5, align 4
  %60 = sext i32 %59 to i64
  %61 = getelementptr inbounds [50 x [50 x i32]], [50 x [50 x i32]]* %3, i64 0, i64 %60
  %62 = getelementptr inbounds [50 x i32], [50 x i32]* %61, i64 0, i64 0
  %63 = call i32 @max(i32 %58, i32* %62)
  %64 = call i32 (i8*, ...) @printf(i8* getelementptr inbounds ([7 x i8], [7 x i8]* @.str.2, i64 0, i64 0), i32 %57, i32 %63)
  br label %65

65:                                               ; preds = %54, %42
  br label %66

66:                                               ; preds = %65
  %67 = load i32, i32* %5, align 4
  %68 = add nsw i32 %67, 1
  store i32 %68, i32* %5, align 4
  br label %37

69:                                               ; preds = %37
  %70 = load i32, i32* %7, align 4
  %71 = icmp eq i32 %70, 0
  br i1 %71, label %72, label %74

72:                                               ; preds = %69
  %73 = call i32 (i8*, ...) @printf(i8* getelementptr inbounds ([4 x i8], [4 x i8]* @.str.3, i64 0, i64 0))
  br label %74

74:                                               ; preds = %72, %69
  ret void
}

declare dso_local i32 @__isoc99_scanf(i8*, ...) #1

; Function Attrs: noinline nounwind uwtable
define dso_local i32 @min(i32 %0, i32 %1, i32 %2, [50 x i32]* %3) #0 {
  %5 = alloca i32, align 4
  %6 = alloca i32, align 4
  %7 = alloca i32, align 4
  %8 = alloca i32, align 4
  %9 = alloca [50 x i32]*, align 8
  %10 = alloca i32, align 4
  %11 = alloca i32, align 4
  store i32 %0, i32* %6, align 4
  store i32 %1, i32* %7, align 4
  store i32 %2, i32* %8, align 4
  store [50 x i32]* %3, [50 x i32]** %9, align 8
  %12 = load [50 x i32]*, [50 x i32]** %9, align 8
  %13 = load i32, i32* %7, align 4
  %14 = sext i32 %13 to i64
  %15 = getelementptr inbounds [50 x i32], [50 x i32]* %12, i64 %14
  %16 = getelementptr inbounds [50 x i32], [50 x i32]* %15, i64 0, i64 0
  %17 = load i32, i32* %8, align 4
  %18 = sext i32 %17 to i64
  %19 = getelementptr inbounds i32, i32* %16, i64 %18
  %20 = load i32, i32* %19, align 4
  store i32 %20, i32* %11, align 4
  store i32 0, i32* %10, align 4
  br label %21

21:                                               ; preds = %40, %4
  %22 = load i32, i32* %10, align 4
  %23 = load i32, i32* %6, align 4
  %24 = sub nsw i32 %23, 1
  %25 = icmp sle i32 %22, %24
  br i1 %25, label %26, label %43

26:                                               ; preds = %21
  %27 = load [50 x i32]*, [50 x i32]** %9, align 8
  %28 = load i32, i32* %10, align 4
  %29 = sext i32 %28 to i64
  %30 = getelementptr inbounds [50 x i32], [50 x i32]* %27, i64 %29
  %31 = getelementptr inbounds [50 x i32], [50 x i32]* %30, i64 0, i64 0
  %32 = load i32, i32* %8, align 4
  %33 = sext i32 %32 to i64
  %34 = getelementptr inbounds i32, i32* %31, i64 %33
  %35 = load i32, i32* %34, align 4
  %36 = load i32, i32* %11, align 4
  %37 = icmp slt i32 %35, %36
  br i1 %37, label %38, label %39

38:                                               ; preds = %26
  store i32 0, i32* %5, align 4
  br label %44

39:                                               ; preds = %26
  br label %40

40:                                               ; preds = %39
  %41 = load i32, i32* %10, align 4
  %42 = add nsw i32 %41, 1
  store i32 %42, i32* %10, align 4
  br label %21

43:                                               ; preds = %21
  store i32 1, i32* %5, align 4
  br label %44

44:                                               ; preds = %43, %38
  %45 = load i32, i32* %5, align 4
  ret i32 %45
}

; Function Attrs: noinline nounwind uwtable
define dso_local i32 @max(i32 %0, i32* %1) #0 {
  %3 = alloca i32, align 4
  %4 = alloca i32*, align 8
  %5 = alloca i32, align 4
  %6 = alloca i32, align 4
  %7 = alloca i32, align 4
  store i32 %0, i32* %3, align 4
  store i32* %1, i32** %4, align 8
  %8 = load i32*, i32** %4, align 8
  %9 = getelementptr inbounds i32, i32* %8, i64 0
  %10 = load i32, i32* %9, align 4
  store i32 %10, i32* %5, align 4
  store i32 0, i32* %7, align 4
  store i32 1, i32* %6, align 4
  br label %11

11:                                               ; preds = %32, %2
  %12 = load i32, i32* %6, align 4
  %13 = load i32, i32* %3, align 4
  %14 = sub nsw i32 %13, 1
  %15 = icmp sle i32 %12, %14
  br i1 %15, label %16, label %35

16:                                               ; preds = %11
  %17 = load i32*, i32** %4, align 8
  %18 = load i32, i32* %6, align 4
  %19 = sext i32 %18 to i64
  %20 = getelementptr inbounds i32, i32* %17, i64 %19
  %21 = load i32, i32* %20, align 4
  %22 = load i32, i32* %5, align 4
  %23 = icmp sgt i32 %21, %22
  br i1 %23, label %24, label %31

24:                                               ; preds = %16
  %25 = load i32*, i32** %4, align 8
  %26 = load i32, i32* %6, align 4
  %27 = sext i32 %26 to i64
  %28 = getelementptr inbounds i32, i32* %25, i64 %27
  %29 = load i32, i32* %28, align 4
  store i32 %29, i32* %5, align 4
  %30 = load i32, i32* %6, align 4
  store i32 %30, i32* %7, align 4
  br label %31

31:                                               ; preds = %24, %16
  br label %32

32:                                               ; preds = %31
  %33 = load i32, i32* %6, align 4
  %34 = add nsw i32 %33, 1
  store i32 %34, i32* %6, align 4
  br label %11

35:                                               ; preds = %11
  %36 = load i32, i32* %7, align 4
  ret i32 %36
}

declare dso_local i32 @printf(i8*, ...) #1


!llvm.module.flags = !{!0}
!llvm.ident = !{!1}

!0 = !{i32 1, !"wchar_size", i32 4}
!1 = !{!"clang version 10.0.0-4ubuntu1 "}
